(lp0
S'D:\\Document\\HousePricing\\Data\\ODTable\\Baoding_3AHospital.csv'
p1
aS'D:\\Document\\HousePricing\\Data\\ODTable\\Baoding_Agricul.csv'
p2
aS'D:\\Document\\HousePricing\\Data\\ODTable\\Baoding_Airport.csv'
p3
aS'D:\\Document\\HousePricing\\Data\\ODTable\\Baoding_Art.csv'
p4
aS'D:\\Document\\HousePricing\\Data\\ODTable\\Baoding_Bazaar.csv'
p5
aS'D:\\Document\\HousePricing\\Data\\ODTable\\Baoding_BHstore.csv'
p6
aS'D:\\Document\\HousePricing\\Data\\ODTable\\Baoding_Bus.csv'
p7
aS'D:\\Document\\HousePricing\\Data\\ODTable\\Baoding_BusinessDistrict.csv'
p8
aS'D:\\Document\\HousePricing\\Data\\ODTable\\Baoding_Cake.csv'
p9
aS'D:\\Document\\HousePricing\\Data\\ODTable\\Baoding_ChinaEat.csv'
p10
aS'D:\\Document\\HousePricing\\Data\\ODTable\\Baoding_Clinic.csv'
p11
aS'D:\\Document\\HousePricing\\Data\\ODTable\\Baoding_Club.csv'
p12
aS'D:\\Document\\HousePricing\\Data\\ODTable\\Baoding_Cmine.csv'
p13
aS'D:\\Document\\HousePricing\\Data\\ODTable\\Baoding_Coach.csv'
p14
aS'D:\\Document\\HousePricing\\Data\\ODTable\\Baoding_Coffee.csv'
p15
aS'D:\\Document\\HousePricing\\Data\\ODTable\\Baoding_College.csv'
p16
aS'D:\\Document\\HousePricing\\Data\\ODTable\\Baoding_Company.csv'
p17
aS'D:\\Document\\HousePricing\\Data\\ODTable\\Baoding_Cross.csv'
p18
aS'D:\\Document\\HousePricing\\Data\\ODTable\\Baoding_Culture.csv'
p19
aS'D:\\Document\\HousePricing\\Data\\ODTable\\Baoding_Czone.csv'
p20
aS'D:\\Document\\HousePricing\\Data\\ODTable\\Baoding_Disease.csv'
p21
aS'D:\\Document\\HousePricing\\Data\\ODTable\\Baoding_Emerg.csv'
p22
aS'D:\\Document\\HousePricing\\Data\\ODTable\\Baoding_Exhibiti.csv'
p23
aS'D:\\Document\\HousePricing\\Data\\ODTable\\Baoding_FastFood.csv'
p24
aS'D:\\Document\\HousePricing\\Data\\ODTable\\Baoding_Fitness.csv'
p25
aS'D:\\Document\\HousePricing\\Data\\ODTable\\Baoding_ForeiEat.csv'
p26
aS'D:\\Document\\HousePricing\\Data\\ODTable\\Baoding_Ghospital.csv'
p27
aS'D:\\Document\\HousePricing\\Data\\ODTable\\Baoding_GHotel.csv'
p28
aS'D:\\Document\\HousePricing\\Data\\ODTable\\Baoding_Khotel.csv'
p29
aS'D:\\Document\\HousePricing\\Data\\ODTable\\Baoding_Market.csv'
p30
aS'D:\\Document\\HousePricing\\Data\\ODTable\\Baoding_Middle.csv'
p31
aS'D:\\Document\\HousePricing\\Data\\ODTable\\Baoding_Museum.csv'
p32
aS'D:\\Document\\HousePricing\\Data\\ODTable\\Baoding_Park.csv'
p33
aS'D:\\Document\\HousePricing\\Data\\ODTable\\Baoding_Plant.csv'
p34
aS'D:\\Document\\HousePricing\\Data\\ODTable\\Baoding_Primary.csv'
p35
aS'D:\\Document\\HousePricing\\Data\\ODTable\\Baoding_Railway.csv'
p36
aS'D:\\Document\\HousePricing\\Data\\ODTable\\Baoding_Recuper.csv'
p37
aS'D:\\Document\\HousePricing\\Data\\ODTable\\Baoding_Scenic.csv'
p38
aS'D:\\Document\\HousePricing\\Data\\ODTable\\Baoding_Shop.csv'
p39
aS'D:\\Document\\HousePricing\\Data\\ODTable\\Baoding_SHospital.csv'
p40
aS'D:\\Document\\HousePricing\\Data\\ODTable\\Baoding_Site.csv'
p41
aS'D:\\Document\\HousePricing\\Data\\ODTable\\Baoding_Sport.csv'
p42
aS'D:\\Document\\HousePricing\\Data\\ODTable\\Baoding_Squares.csv'
p43
aS'D:\\Document\\HousePricing\\Data\\ODTable\\Baoding_Subway.csv'
p44
aS'D:\\Document\\HousePricing\\Data\\ODTable\\Baoding_Teahouse.csv'
p45
aS'D:\\Document\\HousePricing\\Data\\ODTable\\Baoding_Xhotel.csv'
p46
aS'D:\\Document\\HousePricing\\Data\\ODTable\\Baoding_Zoo.csv'
p47
aS'D:\\Document\\HousePricing\\Data\\ODTable\\Baotou_3AHospital.csv'
p48
aS'D:\\Document\\HousePricing\\Data\\ODTable\\Baotou_Agricul.csv'
p49
aS'D:\\Document\\HousePricing\\Data\\ODTable\\Baotou_Airport.csv'
p50
aS'D:\\Document\\HousePricing\\Data\\ODTable\\Baotou_Art.csv'
p51
aS'D:\\Document\\HousePricing\\Data\\ODTable\\Baotou_Bazaar.csv'
p52
aS'D:\\Document\\HousePricing\\Data\\ODTable\\Baotou_BHstore.csv'
p53
aS'D:\\Document\\HousePricing\\Data\\ODTable\\Baotou_Bus.csv'
p54
aS'D:\\Document\\HousePricing\\Data\\ODTable\\Baotou_BusinessDistrict.csv'
p55
aS'D:\\Document\\HousePricing\\Data\\ODTable\\Baotou_Cake.csv'
p56
aS'D:\\Document\\HousePricing\\Data\\ODTable\\Baotou_ChinaEat.csv'
p57
aS'D:\\Document\\HousePricing\\Data\\ODTable\\Baotou_Clinic.csv'
p58
aS'D:\\Document\\HousePricing\\Data\\ODTable\\Baotou_Club.csv'
p59
aS'D:\\Document\\HousePricing\\Data\\ODTable\\Baotou_Cmine.csv'
p60
aS'D:\\Document\\HousePricing\\Data\\ODTable\\Baotou_Coach.csv'
p61
aS'D:\\Document\\HousePricing\\Data\\ODTable\\Baotou_Coffee.csv'
p62
aS'D:\\Document\\HousePricing\\Data\\ODTable\\Baotou_College.csv'
p63
aS'D:\\Document\\HousePricing\\Data\\ODTable\\Baotou_Company.csv'
p64
aS'D:\\Document\\HousePricing\\Data\\ODTable\\Baotou_Cross.csv'
p65
aS'D:\\Document\\HousePricing\\Data\\ODTable\\Baotou_Culture.csv'
p66
aS'D:\\Document\\HousePricing\\Data\\ODTable\\Baotou_Czone.csv'
p67
aS'D:\\Document\\HousePricing\\Data\\ODTable\\Baotou_Disease.csv'
p68
aS'D:\\Document\\HousePricing\\Data\\ODTable\\Baotou_Emerg.csv'
p69
aS'D:\\Document\\HousePricing\\Data\\ODTable\\Baotou_Exhibiti.csv'
p70
aS'D:\\Document\\HousePricing\\Data\\ODTable\\Baotou_FastFood.csv'
p71
aS'D:\\Document\\HousePricing\\Data\\ODTable\\Baotou_Fitness.csv'
p72
aS'D:\\Document\\HousePricing\\Data\\ODTable\\Baotou_ForeiEat.csv'
p73
aS'D:\\Document\\HousePricing\\Data\\ODTable\\Baotou_Ghospital.csv'
p74
aS'D:\\Document\\HousePricing\\Data\\ODTable\\Baotou_GHotel.csv'
p75
aS'D:\\Document\\HousePricing\\Data\\ODTable\\Baoding_AdvanComp.csv'
p76
aS'D:\\Document\\HousePricing\\Data\\ODTable\\Baoding_C0.csv'
p77
aS'D:\\Document\\HousePricing\\Data\\ODTable\\Baoding_C1.csv'
p78
aS'D:\\Document\\HousePricing\\Data\\ODTable\\Baoding_C2.csv'
p79
aS'D:\\Document\\HousePricing\\Data\\ODTable\\Baoding_C3.csv'
p80
aS'D:\\Document\\HousePricing\\Data\\ODTable\\Baoding_C4.csv'
p81
aS'D:\\Document\\HousePricing\\Data\\ODTable\\Baoding_C5.csv'
p82
aS'D:\\Document\\HousePricing\\Data\\ODTable\\Baoding_C6.csv'
p83
a.